target datalayout = "e-m:e-p270:32:32-p271:32:32-p272:64:64-i64:64-i128:128-f80:128-n8:16:32:64-S128"
target triple = "x86_64-pc-linux-gnu"

%struct.Curl_hash = type { ptr, ptr, ptr, ptr, i64, i64 }
%struct.Curl_llist = type { ptr, ptr, ptr, i64 }
%struct.Curl_hash_iterator = type { ptr, i64, ptr }

; Function Attrs: nounwind uwtable
define hidden ptr @Curl_hash_next_element(ptr noundef %0) #0 {
  %2 = alloca ptr, align 8
  %3 = alloca ptr, align 8
  %4 = alloca ptr, align 8
  %5 = alloca i32, align 4
  %6 = alloca i64, align 8
  %7 = alloca ptr, align 8
  store ptr %0, ptr %3, align 8, !tbaa !41
  call void @llvm.lifetime.start.p0(i64 8, ptr %4) #5
  br label %8

8:                                                ; preds = %1
  br label %9

9:                                                ; preds = %8
  br label %10

10:                                               ; preds = %9
  %11 = load ptr, ptr %3, align 8, !tbaa !41
  %12 = getelementptr inbounds nuw %struct.Curl_hash_iterator, ptr %11, i32 0, i32 0
  %13 = load ptr, ptr %12, align 8, !tbaa !43
  store ptr %13, ptr %4, align 8, !tbaa !3
  %14 = load ptr, ptr %4, align 8, !tbaa !3
  %15 = getelementptr inbounds nuw %struct.Curl_hash, ptr %14, i32 0, i32 0
  %16 = load ptr, ptr %15, align 8, !tbaa !11
  %17 = icmp ne ptr %16, null
  br i1 %17, label %19, label %18

18:                                               ; preds = %10
  store ptr null, ptr %2, align 8
  store i32 1, ptr %5, align 4
  br label %84

19:                                               ; preds = %10
  %20 = load ptr, ptr %3, align 8, !tbaa !41
  %21 = getelementptr inbounds nuw %struct.Curl_hash_iterator, ptr %20, i32 0, i32 2
  %22 = load ptr, ptr %21, align 8, !tbaa !46
  %23 = icmp ne ptr %22, null
  br i1 %23, label %24, label %31

24:                                               ; preds = %19
  %25 = load ptr, ptr %3, align 8, !tbaa !41
  %26 = getelementptr inbounds nuw %struct.Curl_hash_iterator, ptr %25, i32 0, i32 2
  %27 = load ptr, ptr %26, align 8, !tbaa !46
  %28 = call ptr @Curl_node_next(ptr noundef %27)
  %29 = load ptr, ptr %3, align 8, !tbaa !41
  %30 = getelementptr inbounds nuw %struct.Curl_hash_iterator, ptr %29, i32 0, i32 2
  store ptr %28, ptr %30, align 8, !tbaa !46
  br label %31

31:                                               ; preds = %24, %19
  %32 = load ptr, ptr %3, align 8, !tbaa !41
  %33 = getelementptr inbounds nuw %struct.Curl_hash_iterator, ptr %32, i32 0, i32 2
  %34 = load ptr, ptr %33, align 8, !tbaa !46
  %35 = icmp ne ptr %34, null
  br i1 %35, label %72, label %36

36:                                               ; preds = %31
  call void @llvm.lifetime.start.p0(i64 8, ptr %6) #5
  %37 = load ptr, ptr %3, align 8, !tbaa !41
  %38 = getelementptr inbounds nuw %struct.Curl_hash_iterator, ptr %37, i32 0, i32 1
  %39 = load i64, ptr %38, align 8, !tbaa !45
  store i64 %39, ptr %6, align 8, !tbaa !8
  br label %40

40:                                               ; preds = %68, %36
  %41 = load i64, ptr %6, align 8, !tbaa !8
  %42 = load ptr, ptr %4, align 8, !tbaa !3
  %43 = getelementptr inbounds nuw %struct.Curl_hash, ptr %42, i32 0, i32 4
  %44 = load i64, ptr %43, align 8, !tbaa !18
  %45 = icmp ult i64 %41, %44
  br i1 %45, label %46, label %71

46:                                               ; preds = %40
  %47 = load ptr, ptr %4, align 8, !tbaa !3
  %48 = getelementptr inbounds nuw %struct.Curl_hash, ptr %47, i32 0, i32 0
  %49 = load ptr, ptr %48, align 8, !tbaa !11
  %50 = load i64, ptr %6, align 8, !tbaa !8
  %51 = getelementptr inbounds nuw %struct.Curl_llist, ptr %49, i64 %50
  %52 = call ptr @Curl_llist_head(ptr noundef %51)
  %53 = icmp ne ptr %52, null
  br i1 %53, label %54, label %67

54:                                               ; preds = %46
  %55 = load ptr, ptr %4, align 8, !tbaa !3
  %56 = getelementptr inbounds nuw %struct.Curl_hash, ptr %55, i32 0, i32 0
  %57 = load ptr, ptr %56, align 8, !tbaa !11
  %58 = load i64, ptr %6, align 8, !tbaa !8
  %59 = getelementptr inbounds nuw %struct.Curl_llist, ptr %57, i64 %58
  %60 = call ptr @Curl_llist_head(ptr noundef %59)
  %61 = load ptr, ptr %3, align 8, !tbaa !41
  %62 = getelementptr inbounds nuw %struct.Curl_hash_iterator, ptr %61, i32 0, i32 2
  store ptr %60, ptr %62, align 8, !tbaa !46
  %63 = load i64, ptr %6, align 8, !tbaa !8
  %64 = add i64 %63, 1
  %65 = load ptr, ptr %3, align 8, !tbaa !41
  %66 = getelementptr inbounds nuw %struct.Curl_hash_iterator, ptr %65, i32 0, i32 1
  store i64 %64, ptr %66, align 8, !tbaa !45
  br label %71

67:                                               ; preds = %46
  br label %68

68:                                               ; preds = %67
  %69 = load i64, ptr %6, align 8, !tbaa !8
  %70 = add i64 %69, 1
  store i64 %70, ptr %6, align 8, !tbaa !8
  br label %40, !llvm.loop !47

71:                                               ; preds = %54, %40
  call void @llvm.lifetime.end.p0(i64 8, ptr %6) #5
  br label %72

72:                                               ; preds = %71, %31
  %73 = load ptr, ptr %3, align 8, !tbaa !41
  %74 = getelementptr inbounds nuw %struct.Curl_hash_iterator, ptr %73, i32 0, i32 2
  %75 = load ptr, ptr %74, align 8, !tbaa !46
  %76 = icmp ne ptr %75, null
  br i1 %76, label %77, label %83

77:                                               ; preds = %72
  call void @llvm.lifetime.start.p0(i64 8, ptr %7) #5
  %78 = load ptr, ptr %3, align 8, !tbaa !41
  %79 = getelementptr inbounds nuw %struct.Curl_hash_iterator, ptr %78, i32 0, i32 2
  %80 = load ptr, ptr %79, align 8, !tbaa !46
  %81 = call ptr @Curl_node_elem(ptr noundef %80)
  store ptr %81, ptr %7, align 8, !tbaa !24
  %82 = load ptr, ptr %7, align 8, !tbaa !24
  store ptr %82, ptr %2, align 8
  store i32 1, ptr %5, align 4
  call void @llvm.lifetime.end.p0(i64 8, ptr %7) #5
  br label %84

83:                                               ; preds = %72
  store ptr null, ptr %2, align 8
  store i32 1, ptr %5, align 4
  br label %84

84:                                               ; preds = %83, %77, %18
  call void @llvm.lifetime.end.p0(i64 8, ptr %4) #5
  %85 = load ptr, ptr %2, align 8
  ret ptr %85
}