; Function Attrs: nounwind uwtable
define hidden ptr @Curl_hash_next_element(ptr noundef captures(none) %0) local_unnamed_addr #1 {
  %2 = load ptr, ptr %0, align 8, !tbaa !32
  %3 = load ptr, ptr %2, align 8, !tbaa !3
  %.not = icmp eq ptr %3, null
  br i1 %.not, label %thread-pre-split.thread, label %4

4:                                                ; preds = %1
  %5 = getelementptr inbounds nuw i8, ptr %0, i64 16
  %6 = load ptr, ptr %5, align 8, !tbaa !35
  %.not23 = icmp eq ptr %6, null
  br i1 %.not23, label %.thread, label %7

7:                                                ; preds = %4
  %8 = tail call ptr @Curl_node_next(ptr noundef nonnull %6) #9
  store ptr %8, ptr %5, align 8, !tbaa !35
  %.not24 = icmp eq ptr %8, null
  br i1 %.not24, label %.thread, label %.thread28

.thread:                                          ; preds = %4, %7
  %9 = getelementptr inbounds nuw i8, ptr %0, i64 8
  %10 = load i64, ptr %9, align 8, !tbaa !36
  %11 = getelementptr inbounds nuw i8, ptr %2, i64 32
  %12 = load i64, ptr %11, align 8, !tbaa !14
  %13 = icmp ult i64 %10, %12
  br i1 %13, label %.lr.ph, label %thread-pre-split.thread

.lr.ph:                                           ; preds = %.thread, %22
  %.02031 = phi i64 [ %23, %22 ], [ %10, %.thread ]
  %14 = load ptr, ptr %2, align 8, !tbaa !3
  %15 = getelementptr inbounds nuw %struct.Curl_llist, ptr %14, i64 %.02031
  %16 = tail call ptr @Curl_llist_head(ptr noundef %15) #9
  %.not25 = icmp eq ptr %16, null
  br i1 %.not25, label %22, label %17

17:                                               ; preds = %.lr.ph
  %18 = load ptr, ptr %2, align 8, !tbaa !3
  %19 = getelementptr inbounds nuw %struct.Curl_llist, ptr %18, i64 %.02031
  %20 = tail call ptr @Curl_llist_head(ptr noundef %19) #9
  store ptr %20, ptr %5, align 8, !tbaa !35
  %21 = add nuw i64 %.02031, 1
  store i64 %21, ptr %9, align 8, !tbaa !36
  br label %thread-pre-split

22:                                               ; preds = %.lr.ph
  %23 = add nuw i64 %.02031, 1
  %24 = load i64, ptr %11, align 8, !tbaa !14
  %25 = icmp ult i64 %23, %24
  br i1 %25, label %.lr.ph, label %thread-pre-split.loopexit, !llvm.loop !37

thread-pre-split.loopexit:                        ; preds = %22
  %.pr.pre = load ptr, ptr %5, align 8, !tbaa !35
  br label %thread-pre-split

thread-pre-split:                                 ; preds = %thread-pre-split.loopexit, %17
  %26 = phi ptr [ %20, %17 ], [ %.pr.pre, %thread-pre-split.loopexit ]
  %.not26 = icmp eq ptr %26, null
  br i1 %.not26, label %thread-pre-split.thread, label %.thread28

.thread28:                                        ; preds = %7, %thread-pre-split
  %27 = phi ptr [ %26, %thread-pre-split ], [ %8, %7 ]
  %28 = tail call ptr @Curl_node_elem(ptr noundef nonnull %27) #9
  br label %thread-pre-split.thread

thread-pre-split.thread:                          ; preds = %.thread, %thread-pre-split, %1, %.thread28
  %.0 = phi ptr [ %28, %.thread28 ], [ null, %1 ], [ null, %thread-pre-split ], [ null, %.thread ]
  ret ptr %.0
}